#include <math.h>
#include <stdio.h>
#include <stdlib.h>
#include <string.h>

int main()
{
	int a[1000][1000];
	int row, col, i, j, k;
	for(i=0;i<1000;i++)
		for(j=0;j<1000;j++)
			a[i][j]=-12345;
		scanf("%d%d", &row, &col);
		for(i=0;i<row;i++)
			for(j=0;j<col;j++)
				scanf("%d", &a[i][j]);
			for(j=0;j<1000;j++)
				for(k=j,i=0;k>=0;k--,i++)
				{
					if(a[i][k]!=-12345)
					printf("%d\n", a[i][k]);
				}


				
	
			
			return 0;
			
			
			
}