; ModuleID = 'source-C-CXX/3/411.c'
source_filename = "source-C-CXX/3/411.c"
target datalayout = "e-m:e-p270:32:32-p271:32:32-p272:64:64-i64:64-f80:128-n8:16:32:64-S128"
target triple = "x86_64-pc-linux-gnu"

@.str = private unnamed_addr constant [5 x i8] c"%d%d\00", align 1
@.str.1 = private unnamed_addr constant [3 x i8] c"%d\00", align 1
@.str.2 = private unnamed_addr constant [4 x i8] c"%d\0A\00", align 1

; Function Attrs: nofree nounwind sspstrong uwtable
define dso_local i32 @main() local_unnamed_addr #0 {
  %1 = alloca [1000 x [1000 x i32]], align 16
  %2 = alloca i32, align 4
  %3 = alloca i32, align 4
  %4 = bitcast [1000 x [1000 x i32]]* %1 to i8*
  call void @llvm.lifetime.start.p0i8(i64 4000000, i8* nonnull %4) #3
  %5 = bitcast i32* %2 to i8*
  call void @llvm.lifetime.start.p0i8(i64 4, i8* nonnull %5) #3
  %6 = bitcast i32* %3 to i8*
  call void @llvm.lifetime.start.p0i8(i64 4, i8* nonnull %6) #3
  br label %7

7:                                                ; preds = %37, %0
  %8 = phi i64 [ 0, %0 ], [ %38, %37 ]
  br label %9

9:                                                ; preds = %9, %7
  %10 = phi i64 [ 0, %7 ], [ %35, %9 ]
  %11 = getelementptr inbounds [1000 x [1000 x i32]], [1000 x [1000 x i32]]* %1, i64 0, i64 %8, i64 %10
  %12 = bitcast i32* %11 to <4 x i32>*
  store <4 x i32> <i32 -12345, i32 -12345, i32 -12345, i32 -12345>, <4 x i32>* %12, align 16, !tbaa !5
  %13 = getelementptr inbounds i32, i32* %11, i64 4
  %14 = bitcast i32* %13 to <4 x i32>*
  store <4 x i32> <i32 -12345, i32 -12345, i32 -12345, i32 -12345>, <4 x i32>* %14, align 16, !tbaa !5
  %15 = add nuw nsw i64 %10, 8
  %16 = getelementptr inbounds [1000 x [1000 x i32]], [1000 x [1000 x i32]]* %1, i64 0, i64 %8, i64 %15
  %17 = bitcast i32* %16 to <4 x i32>*
  store <4 x i32> <i32 -12345, i32 -12345, i32 -12345, i32 -12345>, <4 x i32>* %17, align 16, !tbaa !5
  %18 = getelementptr inbounds i32, i32* %16, i64 4
  %19 = bitcast i32* %18 to <4 x i32>*
  store <4 x i32> <i32 -12345, i32 -12345, i32 -12345, i32 -12345>, <4 x i32>* %19, align 16, !tbaa !5
  %20 = add nuw nsw i64 %10, 16
  %21 = getelementptr inbounds [1000 x [1000 x i32]], [1000 x [1000 x i32]]* %1, i64 0, i64 %8, i64 %20
  %22 = bitcast i32* %21 to <4 x i32>*
  store <4 x i32> <i32 -12345, i32 -12345, i32 -12345, i32 -12345>, <4 x i32>* %22, align 16, !tbaa !5
  %23 = getelementptr inbounds i32, i32* %21, i64 4
  %24 = bitcast i32* %23 to <4 x i32>*
  store <4 x i32> <i32 -12345, i32 -12345, i32 -12345, i32 -12345>, <4 x i32>* %24, align 16, !tbaa !5
  %25 = add nuw nsw i64 %10, 24
  %26 = getelementptr inbounds [1000 x [1000 x i32]], [1000 x [1000 x i32]]* %1, i64 0, i64 %8, i64 %25
  %27 = bitcast i32* %26 to <4 x i32>*
  store <4 x i32> <i32 -12345, i32 -12345, i32 -12345, i32 -12345>, <4 x i32>* %27, align 16, !tbaa !5
  %28 = getelementptr inbounds i32, i32* %26, i64 4
  %29 = bitcast i32* %28 to <4 x i32>*
  store <4 x i32> <i32 -12345, i32 -12345, i32 -12345, i32 -12345>, <4 x i32>* %29, align 16, !tbaa !5
  %30 = add nuw nsw i64 %10, 32
  %31 = getelementptr inbounds [1000 x [1000 x i32]], [1000 x [1000 x i32]]* %1, i64 0, i64 %8, i64 %30
  %32 = bitcast i32* %31 to <4 x i32>*
  store <4 x i32> <i32 -12345, i32 -12345, i32 -12345, i32 -12345>, <4 x i32>* %32, align 16, !tbaa !5
  %33 = getelementptr inbounds i32, i32* %31, i64 4
  %34 = bitcast i32* %33 to <4 x i32>*
  store <4 x i32> <i32 -12345, i32 -12345, i32 -12345, i32 -12345>, <4 x i32>* %34, align 16, !tbaa !5
  %35 = add nuw nsw i64 %10, 40
  %36 = icmp eq i64 %35, 1000
  br i1 %36, label %37, label %9, !llvm.loop !9

37:                                               ; preds = %9
  %38 = add nuw nsw i64 %8, 1
  %39 = icmp eq i64 %38, 1000
  br i1 %39, label %40, label %7, !llvm.loop !12

40:                                               ; preds = %37
  %41 = call i32 (i8*, ...) @__isoc99_scanf(i8* getelementptr inbounds ([5 x i8], [5 x i8]* @.str, i64 0, i64 0), i32* nonnull %2, i32* nonnull %3)
  %42 = load i32, i32* %2, align 4, !tbaa !5
  %43 = icmp sgt i32 %42, 0
  %44 = load i32, i32* %3, align 4
  %45 = icmp sgt i32 %44, 0
  %46 = select i1 %43, i1 %45, i1 false
  br i1 %46, label %47, label %68

47:                                               ; preds = %40, %62
  %48 = phi i32 [ %63, %62 ], [ %42, %40 ]
  %49 = phi i32 [ %64, %62 ], [ %44, %40 ]
  %50 = phi i64 [ %65, %62 ], [ 0, %40 ]
  %51 = icmp sgt i32 %49, 0
  br i1 %51, label %52, label %62

52:                                               ; preds = %47, %52
  %53 = phi i64 [ %56, %52 ], [ 0, %47 ]
  %54 = getelementptr inbounds [1000 x [1000 x i32]], [1000 x [1000 x i32]]* %1, i64 0, i64 %50, i64 %53
  %55 = call i32 (i8*, ...) @__isoc99_scanf(i8* getelementptr inbounds ([3 x i8], [3 x i8]* @.str.1, i64 0, i64 0), i32* nonnull %54)
  %56 = add nuw nsw i64 %53, 1
  %57 = load i32, i32* %3, align 4, !tbaa !5
  %58 = sext i32 %57 to i64
  %59 = icmp slt i64 %56, %58
  br i1 %59, label %52, label %60, !llvm.loop !13

60:                                               ; preds = %52
  %61 = load i32, i32* %2, align 4, !tbaa !5
  br label %62

62:                                               ; preds = %60, %47
  %63 = phi i32 [ %61, %60 ], [ %48, %47 ]
  %64 = phi i32 [ %57, %60 ], [ %49, %47 ]
  %65 = add nuw nsw i64 %50, 1
  %66 = sext i32 %63 to i64
  %67 = icmp slt i64 %65, %66
  br i1 %67, label %47, label %68, !llvm.loop !14

68:                                               ; preds = %62, %40
  br label %69

69:                                               ; preds = %68, %84
  %70 = phi i64 [ %86, %84 ], [ 1, %68 ]
  %71 = phi i64 [ %85, %84 ], [ 0, %68 ]
  br label %72

72:                                               ; preds = %69, %80
  %73 = phi i64 [ 0, %69 ], [ %81, %80 ]
  %74 = phi i64 [ %71, %69 ], [ %82, %80 ]
  %75 = getelementptr inbounds [1000 x [1000 x i32]], [1000 x [1000 x i32]]* %1, i64 0, i64 %73, i64 %74
  %76 = load i32, i32* %75, align 4, !tbaa !5
  %77 = icmp eq i32 %76, -12345
  br i1 %77, label %80, label %78

78:                                               ; preds = %72
  %79 = call i32 (i8*, ...) @printf(i8* nonnull dereferenceable(1) getelementptr inbounds ([4 x i8], [4 x i8]* @.str.2, i64 0, i64 0), i32 %76)
  br label %80

80:                                               ; preds = %72, %78
  %81 = add nuw nsw i64 %73, 1
  %82 = add nsw i64 %74, -1
  %83 = icmp eq i64 %81, %70
  br i1 %83, label %84, label %72, !llvm.loop !16

84:                                               ; preds = %80
  %85 = add nuw nsw i64 %71, 1
  %86 = add nuw nsw i64 %70, 1
  %87 = icmp eq i64 %85, 1000
  br i1 %87, label %88, label %69, !llvm.loop !17

88:                                               ; preds = %84
  call void @llvm.lifetime.end.p0i8(i64 4, i8* nonnull %6) #3
  call void @llvm.lifetime.end.p0i8(i64 4, i8* nonnull %5) #3
  call void @llvm.lifetime.end.p0i8(i64 4000000, i8* nonnull %4) #3
  ret i32 0
}

; Function Attrs: argmemonly mustprogress nofree nosync nounwind willreturn
declare void @llvm.lifetime.start.p0i8(i64 immarg, i8* nocapture) #1

; Function Attrs: nofree nounwind
declare noundef i32 @__isoc99_scanf(i8* nocapture noundef readonly, ...) local_unnamed_addr #2

; Function Attrs: nofree nounwind
declare noundef i32 @printf(i8* nocapture noundef readonly, ...) local_unnamed_addr #2

; Function Attrs: argmemonly mustprogress nofree nosync nounwind willreturn
declare void @llvm.lifetime.end.p0i8(i64 immarg, i8* nocapture) #1


!llvm.module.flags = !{!0, !1, !2, !3}
!llvm.ident = !{!4}

!0 = !{i32 1, !"wchar_size", i32 4}
!1 = !{i32 7, !"PIC Level", i32 2}
!2 = !{i32 7, !"PIE Level", i32 2}
!3 = !{i32 7, !"uwtable", i32 1}
!4 = !{!"clang version 13.0.0"}
!5 = !{!6, !6, i64 0}
!6 = !{!"int", !7, i64 0}
!7 = !{!"omnipotent char", !8, i64 0}
!8 = !{!"Simple C/C++ TBAA"}
!9 = distinct !{!9, !10, !11}
!10 = !{!"llvm.loop.mustprogress"}
!11 = !{!"llvm.loop.isvectorized", i32 1}
!12 = distinct !{!12, !10}
!13 = distinct !{!13, !10}
!14 = distinct !{!14, !10, !15}
!15 = !{!"llvm.loop.unswitch.partial.disable"}
!16 = distinct !{!16, !10}
!17 = distinct !{!17, !10}
